target datalayout = "e-m:e-p270:32:32-p271:32:32-p272:64:64-i64:64-i128:128-f80:128-n8:16:32:64-S128"
target triple = "x86_64-pc-linux-gnu"

%union.pthread_mutex_t = type { %struct.__pthread_mutex_s }
%struct.__pthread_mutex_s = type { i32, i32, i32, i32, i32, i16, i16, %struct.__pthread_internal_list }
%struct.__pthread_internal_list = type { ptr, ptr }
%"class.rocksdb::BlockCacheTracer" = type { %"struct.rocksdb::BlockCacheTraceOptions", %"class.rocksdb::InstrumentedMutex", %"struct.std::atomic", %"struct.std::atomic.43" }
%"struct.rocksdb::BlockCacheTraceOptions" = type { i64 }
%"class.rocksdb::InstrumentedMutex" = type <{ %"class.rocksdb::port::Mutex", ptr, ptr, i32, [4 x i8] }>
%"class.rocksdb::port::Mutex" = type { %union.pthread_mutex_t }
%"struct.std::atomic" = type { %"struct.std::__atomic_base" }
%"struct.std::__atomic_base" = type { ptr }
%"struct.std::atomic.43" = type { %"struct.std::__atomic_base.44" }
%"struct.std::__atomic_base.44" = type { i64 }
%"class.rocksdb::InstrumentedMutexLock" = type { ptr }

; Function Attrs: mustprogress nounwind uwtable
define linkonce_odr noundef i32 @_ZStanSt12memory_orderSt23__memory_order_modifier(i32 noundef %0, i32 noundef %1) #4 comdat {
  %3 = alloca i32, align 4
  %4 = alloca i32, align 4
  store i32 %0, ptr %3, align 4, !tbaa !201
  store i32 %1, ptr %4, align 4, !tbaa !302
  %5 = load i32, ptr %3, align 4, !tbaa !201
  %6 = load i32, ptr %4, align 4, !tbaa !302
  %7 = and i32 %5, %6
  ret i32 %7
}

; Function Attrs: mustprogress uwtable
define linkonce_odr void @_ZN7rocksdb17InstrumentedMutex6UnlockEv(ptr noundef nonnull align 8 dereferenceable(60) %0) #6 comdat align 2 {
  %2 = alloca ptr, align 8
  store ptr %0, ptr %2, align 8, !tbaa !191
  %3 = load ptr, ptr %2, align 8
  %4 = getelementptr inbounds nuw %"class.rocksdb::InstrumentedMutex", ptr %3, i32 0, i32 0
  call void @_ZN7rocksdb4port5Mutex6UnlockEv(ptr noundef nonnull align 8 dereferenceable(40) %4)
  ret void
}

; Function Attrs: alwaysinline mustprogress nounwind uwtable
define linkonce_odr void @_ZNSt13__atomic_baseIPN7rocksdb21BlockCacheTraceWriterEE5storeES2_St12memory_order(ptr noundef nonnull align 8 dereferenceable(8) %0, ptr noundef %1, i32 noundef %2) #12 comdat align 2 {
  %4 = alloca ptr, align 8
  %5 = alloca ptr, align 8
  %6 = alloca i32, align 4
  %7 = alloca i32, align 4
  %8 = alloca ptr, align 8
  store ptr %0, ptr %4, align 8, !tbaa !304
  store ptr %1, ptr %5, align 8, !tbaa !95
  store i32 %2, ptr %6, align 4, !tbaa !201
  %9 = load ptr, ptr %4, align 8
  call void @llvm.lifetime.start.p0(i64 4, ptr %7) #5
  %10 = load i32, ptr %6, align 4, !tbaa !201
  %11 = call noundef i32 @_ZStanSt12memory_orderSt23__memory_order_modifier(i32 noundef %10, i32 noundef 65535)
  store i32 %11, ptr %7, align 4, !tbaa !201
  br label %12

12:                                               ; preds = %3
  br label %13

13:                                               ; preds = %12
  br label %14

14:                                               ; preds = %13
  br label %15

15:                                               ; preds = %14
  br label %16

16:                                               ; preds = %15
  br label %17

17:                                               ; preds = %16
  br label %18

18:                                               ; preds = %17
  br label %19

19:                                               ; preds = %18
  br label %20

20:                                               ; preds = %19
  %21 = getelementptr inbounds nuw %"struct.std::__atomic_base", ptr %9, i32 0, i32 0
  %22 = load i32, ptr %6, align 4, !tbaa !201
  %23 = load ptr, ptr %5, align 8, !tbaa !95
  store ptr %23, ptr %8, align 8, !tbaa !95
  switch i32 %22, label %24 [
    i32 3, label %26
    i32 5, label %28
  ]

24:                                               ; preds = %20
  %25 = load i64, ptr %8, align 8
  store atomic i64 %25, ptr %21 monotonic, align 8
  br label %30

26:                                               ; preds = %20
  %27 = load i64, ptr %8, align 8
  store atomic i64 %27, ptr %21 release, align 8
  br label %30

28:                                               ; preds = %20
  %29 = load i64, ptr %8, align 8
  store atomic i64 %29, ptr %21 seq_cst, align 8
  br label %30

30:                                               ; preds = %28, %26, %24
  call void @llvm.lifetime.end.p0(i64 4, ptr %7) #5
  ret void
}

; Function Attrs: alwaysinline mustprogress nounwind uwtable
define linkonce_odr noundef ptr @_ZNKSt13__atomic_baseIPN7rocksdb21BlockCacheTraceWriterEE4loadESt12memory_order(ptr noundef nonnull align 8 dereferenceable(8) %0, i32 noundef %1) #12 comdat align 2 {
  %3 = alloca ptr, align 8
  %4 = alloca i32, align 4
  %5 = alloca i32, align 4
  %6 = alloca ptr, align 8
  store ptr %0, ptr %3, align 8, !tbaa !304
  store i32 %1, ptr %4, align 4, !tbaa !201
  %7 = load ptr, ptr %3, align 8
  call void @llvm.lifetime.start.p0(i64 4, ptr %5) #5
  %8 = load i32, ptr %4, align 4, !tbaa !201
  %9 = call noundef i32 @_ZStanSt12memory_orderSt23__memory_order_modifier(i32 noundef %8, i32 noundef 65535)
  store i32 %9, ptr %5, align 4, !tbaa !201
  br label %10

10:                                               ; preds = %2
  br label %11

11:                                               ; preds = %10
  br label %12

12:                                               ; preds = %11
  br label %13

13:                                               ; preds = %12
  br label %14

14:                                               ; preds = %13
  br label %15

15:                                               ; preds = %14
  %16 = getelementptr inbounds nuw %"struct.std::__atomic_base", ptr %7, i32 0, i32 0
  %17 = load i32, ptr %4, align 4, !tbaa !201
  switch i32 %17, label %18 [
    i32 1, label %20
    i32 2, label %20
    i32 5, label %22
  ]

18:                                               ; preds = %15
  %19 = load atomic i64, ptr %16 monotonic, align 8
  store i64 %19, ptr %6, align 8
  br label %24

20:                                               ; preds = %15, %15
  %21 = load atomic i64, ptr %16 acquire, align 8
  store i64 %21, ptr %6, align 8
  br label %24

22:                                               ; preds = %15
  %23 = load atomic i64, ptr %16 seq_cst, align 8
  store i64 %23, ptr %6, align 8
  br label %24

24:                                               ; preds = %22, %20, %18
  %25 = load ptr, ptr %6, align 8, !tbaa !95
  call void @llvm.lifetime.end.p0(i64 4, ptr %5) #5
  ret ptr %25
}

; Function Attrs: mustprogress nounwind uwtable
define linkonce_odr void @_ZN7rocksdb21InstrumentedMutexLockD2Ev(ptr noundef nonnull align 8 dereferenceable(8) %0) unnamed_addr #4 comdat align 2 personality ptr @__gxx_personality_v0 {
  %2 = alloca ptr, align 8
  store ptr %0, ptr %2, align 8, !tbaa !205
  %3 = load ptr, ptr %2, align 8
  %4 = getelementptr inbounds nuw %"class.rocksdb::InstrumentedMutexLock", ptr %3, i32 0, i32 0
  %5 = load ptr, ptr %4, align 8, !tbaa !207
  invoke void @_ZN7rocksdb17InstrumentedMutex6UnlockEv(ptr noundef nonnull align 8 dereferenceable(60) %5)
          to label %6 unwind label %7

6:                                                ; preds = %1
  ret void

7:                                                ; preds = %1
  %8 = landingpad { ptr, i32 }
          catch ptr null
  %9 = extractvalue { ptr, i32 } %8, 0
  call void @__clang_call_terminate(ptr %9) #19
  unreachable
}

; Function Attrs: mustprogress nounwind uwtable
define linkonce_odr void @_ZNSt6atomicIPN7rocksdb21BlockCacheTraceWriterEE5storeES2_St12memory_order(ptr noundef nonnull align 8 dereferenceable(8) %0, ptr noundef %1, i32 noundef %2) #4 comdat align 2 {
  %4 = alloca ptr, align 8
  %5 = alloca ptr, align 8
  %6 = alloca i32, align 4
  store ptr %0, ptr %4, align 8, !tbaa !199
  store ptr %1, ptr %5, align 8, !tbaa !95
  store i32 %2, ptr %6, align 4, !tbaa !201
  %7 = load ptr, ptr %4, align 8
  %8 = getelementptr inbounds nuw %"struct.std::atomic", ptr %7, i32 0, i32 0
  %9 = load ptr, ptr %5, align 8, !tbaa !95
  %10 = load i32, ptr %6, align 4, !tbaa !201
  call void @_ZNSt13__atomic_baseIPN7rocksdb21BlockCacheTraceWriterEE5storeES2_St12memory_order(ptr noundef nonnull align 8 dereferenceable(8) %8, ptr noundef %9, i32 noundef %10) #5
  ret void
}

; Function Attrs: mustprogress nounwind uwtable
define linkonce_odr noundef ptr @_ZNKSt6atomicIPN7rocksdb21BlockCacheTraceWriterEE4loadESt12memory_order(ptr noundef nonnull align 8 dereferenceable(8) %0, i32 noundef %1) #4 comdat align 2 {
  %3 = alloca ptr, align 8
  %4 = alloca i32, align 4
  store ptr %0, ptr %3, align 8, !tbaa !199
  store i32 %1, ptr %4, align 4, !tbaa !201
  %5 = load ptr, ptr %3, align 8
  %6 = getelementptr inbounds nuw %"struct.std::atomic", ptr %5, i32 0, i32 0
  %7 = load i32, ptr %4, align 4, !tbaa !201
  %8 = call noundef ptr @_ZNKSt13__atomic_baseIPN7rocksdb21BlockCacheTraceWriterEE4loadESt12memory_order(ptr noundef nonnull align 8 dereferenceable(8) %6, i32 noundef %7) #5
  ret ptr %8
}

; Function Attrs: mustprogress uwtable
define linkonce_odr void @_ZN7rocksdb21InstrumentedMutexLockC2EPNS_17InstrumentedMutexE(ptr noundef nonnull align 8 dereferenceable(8) %0, ptr noundef %1) unnamed_addr #6 comdat align 2 {
  %3 = alloca ptr, align 8
  %4 = alloca ptr, align 8
  store ptr %0, ptr %3, align 8, !tbaa !205
  store ptr %1, ptr %4, align 8, !tbaa !191
  %5 = load ptr, ptr %3, align 8
  %6 = getelementptr inbounds nuw %"class.rocksdb::InstrumentedMutexLock", ptr %5, i32 0, i32 0
  %7 = load ptr, ptr %4, align 8, !tbaa !191
  store ptr %7, ptr %6, align 8, !tbaa !207
  %8 = getelementptr inbounds nuw %"class.rocksdb::InstrumentedMutexLock", ptr %5, i32 0, i32 0
  %9 = load ptr, ptr %8, align 8, !tbaa !207
  call void @_ZN7rocksdb17InstrumentedMutex4LockEv(ptr noundef nonnull align 8 dereferenceable(60) %9)
  ret void
}

; Function Attrs: inlinehint mustprogress nounwind uwtable
define linkonce_odr void @_ZN7rocksdb17InstrumentedMutexD2Ev(ptr noundef nonnull align 8 dereferenceable(60) %0) unnamed_addr #1 comdat align 2 {
  %2 = alloca ptr, align 8
  store ptr %0, ptr %2, align 8, !tbaa !191
  %3 = load ptr, ptr %2, align 8
  %4 = getelementptr inbounds nuw %"class.rocksdb::InstrumentedMutex", ptr %3, i32 0, i32 0
  call void @_ZN7rocksdb4port5MutexD1Ev(ptr noundef nonnull align 8 dereferenceable(40) %4) #5
  ret void
}

; Function Attrs: mustprogress uwtable
define void @_ZN7rocksdb16BlockCacheTracer8EndTraceEv(ptr noundef nonnull align 8 dereferenceable(88) %0) #6 align 2 {
  %2 = alloca ptr, align 8
  %3 = alloca %"class.rocksdb::InstrumentedMutexLock", align 8
  %4 = alloca i32, align 4
  store ptr %0, ptr %2, align 8, !tbaa !185
  %5 = load ptr, ptr %2, align 8
  call void @llvm.lifetime.start.p0(i64 8, ptr %3) #5
  %6 = getelementptr inbounds nuw %"class.rocksdb::BlockCacheTracer", ptr %5, i32 0, i32 1
  call void @_ZN7rocksdb21InstrumentedMutexLockC2EPNS_17InstrumentedMutexE(ptr noundef nonnull align 8 dereferenceable(8) %3, ptr noundef %6)
  %7 = getelementptr inbounds nuw %"class.rocksdb::BlockCacheTracer", ptr %5, i32 0, i32 2
  %8 = call noundef ptr @_ZNKSt6atomicIPN7rocksdb21BlockCacheTraceWriterEE4loadESt12memory_order(ptr noundef nonnull align 8 dereferenceable(8) %7, i32 noundef 5) #5
  %9 = icmp ne ptr %8, null
  br i1 %9, label %11, label %10

10:                                               ; preds = %1
  store i32 1, ptr %4, align 4
  br label %21

11:                                               ; preds = %1
  %12 = getelementptr inbounds nuw %"class.rocksdb::BlockCacheTracer", ptr %5, i32 0, i32 2
  %13 = call noundef ptr @_ZNKSt6atomicIPN7rocksdb21BlockCacheTraceWriterEE4loadESt12memory_order(ptr noundef nonnull align 8 dereferenceable(8) %12, i32 noundef 5) #5
  %14 = icmp eq ptr %13, null
  br i1 %14, label %19, label %15

15:                                               ; preds = %11
  %16 = load ptr, ptr %13, align 8, !tbaa !81
  %17 = getelementptr inbounds ptr, ptr %16, i64 1
  %18 = load ptr, ptr %17, align 8
  call void %18(ptr noundef nonnull align 8 dereferenceable(8) %13) #5
  br label %19

19:                                               ; preds = %15, %11
  %20 = getelementptr inbounds nuw %"class.rocksdb::BlockCacheTracer", ptr %5, i32 0, i32 2
  call void @_ZNSt6atomicIPN7rocksdb21BlockCacheTraceWriterEE5storeES2_St12memory_order(ptr noundef nonnull align 8 dereferenceable(8) %20, ptr noundef null, i32 noundef 5) #5
  store i32 0, ptr %4, align 4
  br label %21

21:                                               ; preds = %19, %10
  call void @_ZN7rocksdb21InstrumentedMutexLockD2Ev(ptr noundef nonnull align 8 dereferenceable(8) %3) #5
  call void @llvm.lifetime.end.p0(i64 8, ptr %3) #5
  %22 = load i32, ptr %4, align 4
  switch i32 %22, label %24 [
    i32 0, label %23
    i32 1, label %23
  ]

23:                                               ; preds = %21, %21
  ret void

24:                                               ; preds = %21
  unreachable
}

; Function Attrs: mustprogress nounwind uwtable
define void @_ZN7rocksdb16BlockCacheTracerD2Ev(ptr noundef nonnull align 8 dereferenceable(88) %0) unnamed_addr #4 align 2 personality ptr @__gxx_personality_v0 {
  %2 = alloca ptr, align 8
  store ptr %0, ptr %2, align 8, !tbaa !185
  %3 = load ptr, ptr %2, align 8
  invoke void @_ZN7rocksdb16BlockCacheTracer8EndTraceEv(ptr noundef nonnull align 8 dereferenceable(88) %3)
          to label %4 unwind label %6

4:                                                ; preds = %1
  %5 = getelementptr inbounds nuw %"class.rocksdb::BlockCacheTracer", ptr %3, i32 0, i32 1
  call void @_ZN7rocksdb17InstrumentedMutexD2Ev(ptr noundef nonnull align 8 dereferenceable(60) %5) #5
  ret void

6:                                                ; preds = %1
  %7 = landingpad { ptr, i32 }
          catch ptr null
  %8 = extractvalue { ptr, i32 } %7, 0
  call void @__clang_call_terminate(ptr %8) #19
  unreachable
}