; Function Attrs: mustprogress nounwind uwtable
define void @_ZN7rocksdb16BlockCacheTracerD2Ev(ptr noundef nonnull align 8 dereferenceable(88) %0) unnamed_addr #1 align 2 personality ptr @__gxx_personality_v0 {
  %2 = getelementptr inbounds nuw i8, ptr %0, i64 8
  invoke void @_ZN7rocksdb17InstrumentedMutex4LockEv(ptr noundef nonnull align 8 dereferenceable(60) %2)
          to label %.noexc unwind label %17

.noexc:                                           ; preds = %1
  %3 = getelementptr inbounds nuw i8, ptr %0, i64 72
  %4 = load atomic i64, ptr %3 seq_cst, align 8
  %.not.i = icmp eq i64 %4, 0
  br i1 %.not.i, label %13, label %5

5:                                                ; preds = %.noexc
  %6 = load atomic i64, ptr %3 seq_cst, align 8
  %7 = icmp eq i64 %6, 0
  br i1 %7, label %12, label %8

8:                                                ; preds = %5
  %.0.i.i1.i = inttoptr i64 %6 to ptr
  %9 = load ptr, ptr %.0.i.i1.i, align 8, !tbaa !39
  %10 = getelementptr inbounds nuw i8, ptr %9, i64 8
  %11 = load ptr, ptr %10, align 8
  tail call void %11(ptr noundef nonnull align 8 dereferenceable(8) %.0.i.i1.i) #28
  br label %12

12:                                               ; preds = %8, %5
  store atomic i64 0, ptr %3 seq_cst, align 8
  br label %13

13:                                               ; preds = %12, %.noexc
  invoke void @_ZN7rocksdb4port5Mutex6UnlockEv(ptr noundef nonnull align 8 dereferenceable(60) %2)
          to label %_ZN7rocksdb16BlockCacheTracer8EndTraceEv.exit unwind label %14

14:                                               ; preds = %13
  %15 = landingpad { ptr, i32 }
          catch ptr null
  %16 = extractvalue { ptr, i32 } %15, 0
  tail call void @__clang_call_terminate(ptr %16) #30
  unreachable

_ZN7rocksdb16BlockCacheTracer8EndTraceEv.exit:    ; preds = %13
  tail call void @_ZN7rocksdb4port5MutexD1Ev(ptr noundef nonnull align 8 dereferenceable(60) %2) #28
  ret void

17:                                               ; preds = %1
  %18 = landingpad { ptr, i32 }
          catch ptr null
  %19 = extractvalue { ptr, i32 } %18, 0
  tail call void @__clang_call_terminate(ptr %19) #30
  unreachable
}